; Function Attrs: nounwind uwtable
define noalias nonnull ptr @l_List_foldl___at___private_Lean_Compiler_ExternAttr_0__Lean_hashExternAttrData____x40_Lean_Compiler_ExternAttr___hyg_456____spec__1___boxed(ptr noundef %0, ptr noundef %1) local_unnamed_addr #0 {
  %3 = getelementptr i8, ptr %0, i64 8
  %.val = load i64, ptr %3, align 8, !tbaa !8
  %4 = ptrtoint ptr %0 to i64
  %5 = and i64 %4, 1
  %.not = icmp eq i64 %5, 0
  br i1 %.not, label %6, label %lean_dec.exit6.preheader

6:                                                ; preds = %2
  %7 = load i32, ptr %0, align 4, !tbaa !10
  %8 = icmp sgt i32 %7, 1
  br i1 %8, label %9, label %11, !prof !13

9:                                                ; preds = %6
  %10 = add nsw i32 %7, -1
  store i32 %10, ptr %0, align 4, !tbaa !10
  br label %lean_dec.exit6.preheader

11:                                               ; preds = %6
  %.not.i = icmp eq i32 %7, 0
  br i1 %.not.i, label %lean_dec.exit6.preheader, label %12

12:                                               ; preds = %11
  tail call void @lean_dec_ref_cold(ptr noundef nonnull %0) #6
  br label %lean_dec.exit6.preheader

lean_dec.exit6.preheader:                         ; preds = %12, %11, %9, %2
  br label %lean_dec.exit6

lean_dec.exit6:                                   ; preds = %lean_dec.exit6.preheader, %22
  %.08.i = phi ptr [ %26, %22 ], [ %1, %lean_dec.exit6.preheader ]
  %.0.i = phi i64 [ %28, %22 ], [ %.val, %lean_dec.exit6.preheader ]
  %13 = ptrtoint ptr %.08.i to i64
  %14 = and i64 %13, 1
  %.not.i.i = icmp eq i64 %14, 0
  br i1 %.not.i.i, label %18, label %15

15:                                               ; preds = %lean_dec.exit6
  %16 = lshr i64 %13, 1
  %17 = trunc i64 %16 to i32
  br label %lean_obj_tag.exit.i

18:                                               ; preds = %lean_dec.exit6
  %19 = getelementptr i8, ptr %.08.i, i64 4
  %.val.i.i = load i32, ptr %19, align 4
  %20 = lshr i32 %.val.i.i, 24
  br label %lean_obj_tag.exit.i

lean_obj_tag.exit.i:                              ; preds = %18, %15
  %.0.i.i = phi i32 [ %17, %15 ], [ %20, %18 ]
  %21 = icmp eq i32 %.0.i.i, 0
  br i1 %21, label %l_List_foldl___at___private_Lean_Compiler_ExternAttr_0__Lean_hashExternAttrData____x40_Lean_Compiler_ExternAttr___hyg_456____spec__1.exit, label %22

22:                                               ; preds = %lean_obj_tag.exit.i
  %23 = getelementptr inbounds nuw i8, ptr %.08.i, i64 8
  %24 = load ptr, ptr %23, align 8, !tbaa !4
  %25 = getelementptr inbounds nuw i8, ptr %.08.i, i64 16
  %26 = load ptr, ptr %25, align 8, !tbaa !4
  %27 = tail call i64 @l___private_Lean_Compiler_ExternAttr_0__Lean_hashExternEntry____x40_Lean_Compiler_ExternAttr___hyg_250_(ptr noundef %24)
  %28 = tail call i64 @lean_uint64_mix_hash(i64 noundef %.0.i, i64 noundef %27) #6
  br label %lean_dec.exit6

l_List_foldl___at___private_Lean_Compiler_ExternAttr_0__Lean_hashExternAttrData____x40_Lean_Compiler_ExternAttr___hyg_456____spec__1.exit: ; preds = %lean_obj_tag.exit.i
  %29 = ptrtoint ptr %1 to i64
  %30 = and i64 %29, 1
  %.not9 = icmp eq i64 %30, 0
  br i1 %.not9, label %31, label %lean_dec.exit

31:                                               ; preds = %l_List_foldl___at___private_Lean_Compiler_ExternAttr_0__Lean_hashExternAttrData____x40_Lean_Compiler_ExternAttr___hyg_456____spec__1.exit
  %32 = load i32, ptr %1, align 4, !tbaa !10
  %33 = icmp sgt i32 %32, 1
  br i1 %33, label %34, label %36, !prof !13

34:                                               ; preds = %31
  %35 = add nsw i32 %32, -1
  store i32 %35, ptr %1, align 4, !tbaa !10
  br label %lean_dec.exit

36:                                               ; preds = %31
  %.not.i7 = icmp eq i32 %32, 0
  br i1 %.not.i7, label %lean_dec.exit, label %37

37:                                               ; preds = %36
  tail call void @lean_dec_ref_cold(ptr noundef nonnull %1) #6
  br label %lean_dec.exit

lean_dec.exit:                                    ; preds = %37, %36, %34, %l_List_foldl___at___private_Lean_Compiler_ExternAttr_0__Lean_hashExternAttrData____x40_Lean_Compiler_ExternAttr___hyg_456____spec__1.exit
  tail call void @lean_inc_heartbeat() #6
  %38 = tail call noalias ptr @mi_malloc_small(i64 noundef 16) #6
  %39 = icmp eq ptr %38, null
  br i1 %39, label %40, label %lean_box_uint64.exit

40:                                               ; preds = %lean_dec.exit
  tail call void @lean_internal_panic_out_of_memory() #7
  unreachable

lean_box_uint64.exit:                             ; preds = %lean_dec.exit
  %41 = getelementptr inbounds nuw i8, ptr %38, i64 4
  store i32 1, ptr %38, align 4, !tbaa !10
  store i32 16, ptr %41, align 4
  %42 = getelementptr inbounds nuw i8, ptr %38, i64 8
  store i64 %.0.i, ptr %42, align 8, !tbaa !8
  ret ptr %38
}